; Function Attrs: nounwind uwtable
define internal i32 @dissect_dlt_storage_header(ptr noundef %0, ptr noundef initializes((208, 232)) %1, ptr noundef %2, ptr readnone captures(none) %3) #2 {
  %5 = load i32, ptr @proto_dlt_storage_header, align 4
  %6 = tail call ptr @proto_tree_add_item(ptr noundef %2, i32 noundef %5, ptr noundef %0, i32 noundef 0, i32 noundef 16, i32 noundef 0) #7
  %7 = load i32, ptr @ett_dlt_storage, align 4
  %8 = tail call ptr @proto_item_add_subtree(ptr noundef %6, i32 noundef %7) #7
  %9 = load i32, ptr @hf_dlt_storage_tstamp_s, align 4
  %10 = tail call ptr @proto_tree_add_item(ptr noundef %8, i32 noundef %9, ptr noundef %0, i32 noundef 0, i32 noundef 4, i32 noundef -2147483648) #7
  %11 = load i32, ptr @hf_dlt_storage_tstamp_us, align 4
  %12 = tail call ptr @proto_tree_add_item(ptr noundef %8, i32 noundef %11, ptr noundef %0, i32 noundef 4, i32 noundef 4, i32 noundef -2147483648) #7
  %13 = getelementptr inbounds nuw i8, ptr %1, i64 208
  %14 = tail call ptr @tvb_get_ptr(ptr noundef %0, i32 noundef 8, i32 noundef 4) #7
  store i32 7, ptr %13, align 8
  %15 = getelementptr inbounds nuw i8, ptr %1, i64 212
  store i32 4, ptr %15, align 4
  %16 = getelementptr inbounds nuw i8, ptr %1, i64 216
  store ptr %14, ptr %16, align 8
  %17 = getelementptr inbounds nuw i8, ptr %1, i64 224
  store ptr null, ptr %17, align 8
  %18 = load i32, ptr @hf_dlt_storage_ecu_name, align 4
  %19 = tail call ptr @proto_tree_add_item(ptr noundef %8, i32 noundef %18, ptr noundef %0, i32 noundef 8, i32 noundef 5, i32 noundef 0) #7
  %20 = load i32, ptr @hf_dlt_storage_reserved, align 4
  %21 = tail call ptr @proto_tree_add_item(ptr noundef %8, i32 noundef %20, ptr noundef %0, i32 noundef 13, i32 noundef 3, i32 noundef 0) #7
  %22 = tail call fastcc i32 @dissect_dlt(ptr noundef %0, ptr noundef %1, ptr noundef %2, i32 noundef 16)
  %23 = add i32 %22, 16
  ret i32 %23
}